target datalayout = "e-m:e-p270:32:32-p271:32:32-p272:64:64-i64:64-i128:128-f80:128-n8:16:32:64-S128"
target triple = "x86_64-pc-linux-gnu"

%"class.cv::reg::MapperPyramid" = type { %"class.cv::reg::Mapper", i32, i32, ptr }
%"class.cv::reg::Mapper" = type { ptr }
%"class.std::__shared_count" = type { ptr }
%"class.std::__shared_ptr" = type { ptr, %"class.std::__shared_count" }

@_ZTVN2cv3reg6MapperE = linkonce_odr unnamed_addr constant { [6 x ptr] } { [6 x ptr] [ptr null, ptr @_ZTIN2cv3reg6MapperE, ptr @_ZN2cv3reg6MapperD2Ev, ptr @_ZN2cv3reg6MapperD0Ev, ptr @__cxa_pure_virtual, ptr @__cxa_pure_virtual] }, comdat, align 8

; Function Attrs: mustprogress nounwind uwtable
define linkonce_odr hidden noundef ptr @_ZNKSt12__shared_ptrIN2cv3reg6MapperELN9__gnu_cxx12_Lock_policyE2EE3getEv(ptr noundef nonnull align 8 dereferenceable(16) %0) #0 comdat align 2 {
  %2 = alloca ptr, align 8
  store ptr %0, ptr %2, align 8, !tbaa !71
  %3 = load ptr, ptr %2, align 8
  %4 = getelementptr inbounds nuw %"class.std::__shared_ptr", ptr %3, i32 0, i32 0
  %5 = load ptr, ptr %4, align 8, !tbaa !73
  ret ptr %5
}

; Function Attrs: mustprogress nounwind uwtable
define linkonce_odr hidden noundef nonnull align 8 dereferenceable(8) ptr @_ZNK2cv3PtrINS_3reg6MapperEEdeEv(ptr noundef nonnull align 8 dereferenceable(16) %0) #0 comdat align 2 {
  %2 = alloca ptr, align 8
  store ptr %0, ptr %2, align 8, !tbaa !8
  %3 = load ptr, ptr %2, align 8
  %4 = call noundef ptr @_ZNKSt12__shared_ptrIN2cv3reg6MapperELN9__gnu_cxx12_Lock_policyE2EE3getEv(ptr noundef nonnull align 8 dereferenceable(16) %3) #16
  ret ptr %4
}

; Function Attrs: inlinehint mustprogress nounwind uwtable
define linkonce_odr hidden void @_ZN2cv3reg6MapperC2Ev(ptr noundef nonnull align 8 dereferenceable(8) %0) unnamed_addr #1 comdat align 2 {
  %2 = alloca ptr, align 8
  store ptr %0, ptr %2, align 8, !tbaa !18
  %3 = load ptr, ptr %2, align 8
  store ptr getelementptr inbounds inrange(-16, 32) ({ [6 x ptr] }, ptr @_ZTVN2cv3reg6MapperE, i32 0, i32 0, i32 2), ptr %3, align 8, !tbaa !10
  ret void
}

; Function Attrs: mustprogress nounwind uwtable
define void @_ZN2cv3reg13MapperPyramidC2ENS_3PtrINS0_6MapperEEE(ptr noundef nonnull align 8 dereferenceable(24) %0, ptr noundef %1) unnamed_addr #0 align 2 {
  %3 = alloca ptr, align 8
  %4 = alloca ptr, align 8
  store ptr %0, ptr %3, align 8, !tbaa !3
  store ptr %1, ptr %4, align 8, !tbaa !8
  %5 = load ptr, ptr %3, align 8
  call void @_ZN2cv3reg6MapperC2Ev(ptr noundef nonnull align 8 dereferenceable(8) %5) #16
  store ptr getelementptr inbounds inrange(-16, 32) ({ [6 x ptr] }, ptr @_ZTVN2cv3reg13MapperPyramidE, i32 0, i32 0, i32 2), ptr %5, align 8, !tbaa !10
  %6 = getelementptr inbounds nuw %"class.cv::reg::MapperPyramid", ptr %5, i32 0, i32 1
  store i32 3, ptr %6, align 8, !tbaa !12
  %7 = getelementptr inbounds nuw %"class.cv::reg::MapperPyramid", ptr %5, i32 0, i32 2
  store i32 3, ptr %7, align 4, !tbaa !17
  %8 = getelementptr inbounds nuw %"class.cv::reg::MapperPyramid", ptr %5, i32 0, i32 3
  %9 = call noundef nonnull align 8 dereferenceable(8) ptr @_ZNK2cv3PtrINS_3reg6MapperEEdeEv(ptr noundef nonnull align 8 dereferenceable(16) %1) #16
  store ptr %9, ptr %8, align 8, !tbaa !18
  ret void
}